ARM GAS  C:\Users\abhim\AppData\Local\Temp\ccc6Qq8K.s 			page 1


   1              		.syntax unified
   2              		.cpu cortex-m3
   3              		.fpu softvfp
   4              		.eabi_attribute 20, 1
   5              		.eabi_attribute 21, 1
   6              		.eabi_attribute 23, 3
   7              		.eabi_attribute 24, 1
   8              		.eabi_attribute 25, 1
   9              		.eabi_attribute 26, 1
  10              		.eabi_attribute 30, 1
  11              		.eabi_attribute 34, 1
  12              		.eabi_attribute 18, 4
  13              		.thumb
  14              		.syntax unified
  15              		.file	"timingAnalyzer.c"
  16              		.text
  17              	.Ltext0:
  18              		.cfi_sections	.debug_frame
  19              		.section	.text.SysTick_Handler,"ax",%progbits
  20              		.align	2
  21              		.global	SysTick_Handler
  22              		.thumb
  23              		.thumb_func
  24              		.type	SysTick_Handler, %function
  25              	SysTick_Handler:
  26              	.LFB64:
  27              		.file 1 "timingAnalyzer.c"
   1:timingAnalyzer.c **** /* ========================================
   2:timingAnalyzer.c ****  *
   3:timingAnalyzer.c ****  * Copyright YOUR COMPANY, THE YEAR
   4:timingAnalyzer.c ****  * All Rights Reserved
   5:timingAnalyzer.c ****  * UNPUBLISHED, LICENSED SOFTWARE.
   6:timingAnalyzer.c ****  *
   7:timingAnalyzer.c ****  * CONFIDENTIAL AND PROPRIETARY INFORMATION
   8:timingAnalyzer.c ****  * WHICH IS THE PROPERTY OF your company.
   9:timingAnalyzer.c ****  *
  10:timingAnalyzer.c ****  * ========================================
  11:timingAnalyzer.c **** */
  12:timingAnalyzer.c **** #include "timingAnalyzer.h"
  13:timingAnalyzer.c **** #include <stdio.h>
  14:timingAnalyzer.c **** #include <string.h>
  15:timingAnalyzer.c **** 
  16:timingAnalyzer.c **** static TimingAnalyzer_t analyzers[MAX_ANALYZERS];
  17:timingAnalyzer.c **** static volatile uint32_t systickCounter = 0;
  18:timingAnalyzer.c **** static uint32_t analyzerCount = 0;
  19:timingAnalyzer.c **** 
  20:timingAnalyzer.c **** void SysTick_Handler(void) {
  28              		.loc 1 20 0
  29              		.cfi_startproc
  30              		@ args = 0, pretend = 0, frame = 0
  31              		@ frame_needed = 0, uses_anonymous_args = 0
  32              		@ link register save eliminated.
  21:timingAnalyzer.c ****     systickCounter++;
  33              		.loc 1 21 0
  34 0000 024A     		ldr	r2, .L2
  35 0002 1368     		ldr	r3, [r2]
  36 0004 0133     		adds	r3, r3, #1
ARM GAS  C:\Users\abhim\AppData\Local\Temp\ccc6Qq8K.s 			page 2


  37 0006 1360     		str	r3, [r2]
  38 0008 7047     		bx	lr
  39              	.L3:
  40 000a 00BF     		.align	2
  41              	.L2:
  42 000c 00000000 		.word	.LANCHOR0
  43              		.cfi_endproc
  44              	.LFE64:
  45              		.size	SysTick_Handler, .-SysTick_Handler
  46              		.section	.text.TimingAnalyzer_RedLED,"ax",%progbits
  47              		.align	2
  48              		.global	TimingAnalyzer_RedLED
  49              		.thumb
  50              		.thumb_func
  51              		.type	TimingAnalyzer_RedLED, %function
  52              	TimingAnalyzer_RedLED:
  53              	.LFB73:
  22:timingAnalyzer.c **** }
  23:timingAnalyzer.c **** 
  24:timingAnalyzer.c **** // Pin control function pointers
  25:timingAnalyzer.c **** static PinControl_t redLedControl;
  26:timingAnalyzer.c **** static PinControl_t greenLedControl;
  27:timingAnalyzer.c **** static PinControl_t yellowLedControl;
  28:timingAnalyzer.c **** 
  29:timingAnalyzer.c **** 
  30:timingAnalyzer.c **** /*******************************************************************************
  31:timingAnalyzer.c **** * Function Name: TimingAnalyzer_Init
  32:timingAnalyzer.c **** ****************************************************************************//**
  33:timingAnalyzer.c **** *
  34:timingAnalyzer.c ****  * Will initialise the DWT and SysTick Counters.
  35:timingAnalyzer.c ****  *
  36:timingAnalyzer.c ****  *
  37:timingAnalyzer.c ****  * \return RC_SUCCESS if the initialisation was done.
  38:timingAnalyzer.c **** *
  39:timingAnalyzer.c **** *******************************************************************************/
  40:timingAnalyzer.c **** RC_t TimingAnalyzer_Init(){
  41:timingAnalyzer.c ****     //Initializing Systick counter.
  42:timingAnalyzer.c ****     CySysTickInit();
  43:timingAnalyzer.c ****     CySysTickSetCallback(0,SysTick_Handler);
  44:timingAnalyzer.c ****     CySysTickSetReload(BCLK__BUS_CLK__HZ/1000 -1);
  45:timingAnalyzer.c ****     
  46:timingAnalyzer.c ****     //Initializing DWT counter
  47:timingAnalyzer.c ****     CoreDebug-> DEMCR |= CoreDebug_DEMCR_TRCENA_Msk;
  48:timingAnalyzer.c ****     DWT->CTRL |= DWT_CTRL_CYCCNTENA_Msk;
  49:timingAnalyzer.c ****     DWT->CYCCNT = 0;
  50:timingAnalyzer.c ****     return RC_SUCCESS;
  51:timingAnalyzer.c **** }
  52:timingAnalyzer.c **** 
  53:timingAnalyzer.c **** 
  54:timingAnalyzer.c **** /*******************************************************************************
  55:timingAnalyzer.c **** * Function Name: TimingAnalyzer_Create
  56:timingAnalyzer.c **** ****************************************************************************//**
  57:timingAnalyzer.c **** *
  58:timingAnalyzer.c ****  * Starts the timing analyzer.
  59:timingAnalyzer.c ****  *
  60:timingAnalyzer.c ****  * \param TimingAnalyzer_t *const me : [IN] the object of the timingAnalyzer struct.
  61:timingAnalyzer.c ****  * \param TimerMode_t       		 : [IN] enum for the different modes available.
ARM GAS  C:\Users\abhim\AppData\Local\Temp\ccc6Qq8K.s 			page 3


  62:timingAnalyzer.c ****  * \param uint8_t pin	             : [IN] unsigned 8-bit value for the pin control.
  63:timingAnalyzer.c ****  * \param const char* name           : [IN] name of the analyzer.
  64:timingAnalyzer.c ****  *
  65:timingAnalyzer.c ****  * \return RC_SUCCESS if analyser was created, RC_ERROR in case it was not.
  66:timingAnalyzer.c **** *
  67:timingAnalyzer.c **** *******************************************************************************/
  68:timingAnalyzer.c **** RC_t TimingAnalyzer_Create(TimingAnalyzer_t *const me, TimerMode_t mode,uint8_t pin,const char* nam
  69:timingAnalyzer.c ****     if(!me){
  70:timingAnalyzer.c ****         return RC_ERROR;      
  71:timingAnalyzer.c ****     }else{
  72:timingAnalyzer.c ****         strcpy(me->name,name);
  73:timingAnalyzer.c ****         me->mode = mode;
  74:timingAnalyzer.c ****         me->pin = pin;
  75:timingAnalyzer.c ****         me->state=STATE_CONFIGURED;
  76:timingAnalyzer.c ****         me->startTime = 0;
  77:timingAnalyzer.c ****         me->endTime = 0;
  78:timingAnalyzer.c ****         me->totalTime = 0;
  79:timingAnalyzer.c ****         me->cycleCount = 0;
  80:timingAnalyzer.c ****    
  81:timingAnalyzer.c ****         // Assign pin control based on pin number
  82:timingAnalyzer.c ****         switch(pin) {
  83:timingAnalyzer.c ****             case 0: me->pinControl = TimingAnalyzer_RedLED;
  84:timingAnalyzer.c ****             break;
  85:timingAnalyzer.c ****             case 1: me->pinControl = TimingAnalyzer_GreenLED;
  86:timingAnalyzer.c ****             // UART_LOG_PutString("Het");
  87:timingAnalyzer.c ****             break;
  88:timingAnalyzer.c ****             case 2: me->pinControl = TimingAnalyzer_YellowLED; 
  89:timingAnalyzer.c ****             break;
  90:timingAnalyzer.c ****             default: me->pinControl = NULL;
  91:timingAnalyzer.c ****         }
  92:timingAnalyzer.c ****         me->isValid = true;
  93:timingAnalyzer.c ****         return RC_SUCCESS;
  94:timingAnalyzer.c ****     }
  95:timingAnalyzer.c **** }
  96:timingAnalyzer.c **** 
  97:timingAnalyzer.c **** 
  98:timingAnalyzer.c **** /*******************************************************************************
  99:timingAnalyzer.c **** * Function Name: TimingAnalyzer_Start
 100:timingAnalyzer.c **** ****************************************************************************//**
 101:timingAnalyzer.c **** *
 102:timingAnalyzer.c ****  * Starts the timing analyzer.
 103:timingAnalyzer.c **** *
 104:timingAnalyzer.c ****  * \param TimingAnalyzer_t *const me : [IN] the object of the timingAnalyzer struct.
 105:timingAnalyzer.c **** *
 106:timingAnalyzer.c ****  * \return RC_SUCCESS if the analyser was started only after being configured and not runnnig curre
 107:timingAnalyzer.c ****  *   If analyzer is paused, it should resume.
 108:timingAnalyzer.c ****  * \return RC_ERROR in case the current mode doesn't satisfy the above conditions.
 109:timingAnalyzer.c **** *
 110:timingAnalyzer.c **** *******************************************************************************/
 111:timingAnalyzer.c **** 
 112:timingAnalyzer.c **** RC_t TimingAnalyzer_Start(TimingAnalyzer_t *const me){
 113:timingAnalyzer.c ****     if(me->state == 0){
 114:timingAnalyzer.c ****         if(me->mode == MODE_DWT_COUNTER || me->mode == MODE_DWT_COUNTER_PIN){
 115:timingAnalyzer.c ****              DWT->CYCCNT =0; // Reset the counter at start
 116:timingAnalyzer.c ****              me->startTime = DWT->CYCCNT;
 117:timingAnalyzer.c ****         }else if (me->mode == MODE_SYSTICK || me->mode == MODE_SYSTICK_PIN) {
 118:timingAnalyzer.c ****             CySysTickEnable();
ARM GAS  C:\Users\abhim\AppData\Local\Temp\ccc6Qq8K.s 			page 4


 119:timingAnalyzer.c ****             systickCounter = 0;  // Reset the counter at start
 120:timingAnalyzer.c ****             me->startTime = systickCounter;
 121:timingAnalyzer.c ****         }
 122:timingAnalyzer.c ****          me->state = STATE_START;
 123:timingAnalyzer.c ****         // Set pin if applicable
 124:timingAnalyzer.c ****         if (me->pinControl && (me->mode == MODE_DWT_COUNTER_PIN || 
 125:timingAnalyzer.c ****                               me->mode == MODE_SYSTICK_PIN || 
 126:timingAnalyzer.c ****                               me->mode == MODE_PIN_ONLY)) {
 127:timingAnalyzer.c ****             me->pinControl(1);
 128:timingAnalyzer.c ****         }
 129:timingAnalyzer.c ****         me->state = STATE_START;          
 130:timingAnalyzer.c ****         return RC_SUCCESS;
 131:timingAnalyzer.c ****     }
 132:timingAnalyzer.c ****     else
 133:timingAnalyzer.c ****     {
 134:timingAnalyzer.c ****         UART_LOG_PutString("Invalid State\r\n");
 135:timingAnalyzer.c ****         return RC_ERROR;
 136:timingAnalyzer.c ****     }
 137:timingAnalyzer.c ****     
 138:timingAnalyzer.c **** }
 139:timingAnalyzer.c **** 
 140:timingAnalyzer.c **** 
 141:timingAnalyzer.c **** /*******************************************************************************
 142:timingAnalyzer.c **** * Function Name: TimingAnalyzer_Stop
 143:timingAnalyzer.c **** ****************************************************************************//**
 144:timingAnalyzer.c **** *
 145:timingAnalyzer.c ****  * Stops the timing analyzer.
 146:timingAnalyzer.c ****  *
 147:timingAnalyzer.c ****  * \param TimingAnalyzer_t *const me : [IN] the object of the timingAnalyzer struct.
 148:timingAnalyzer.c ****  *
 149:timingAnalyzer.c ****  * \return RC_SUCCESS if the analyser was stopped either from a running or a pause condition.
 150:timingAnalyzer.c ****  * \return RC_ERROR in case the current mode doesn't satisfy the above conditions.
 151:timingAnalyzer.c **** *
 152:timingAnalyzer.c **** *******************************************************************************/
 153:timingAnalyzer.c **** RC_t TimingAnalyzer_Stop(TimingAnalyzer_t* me){
 154:timingAnalyzer.c ****     if(me->state == 1 || me->state == 3){
 155:timingAnalyzer.c ****         if (me->mode == MODE_DWT_COUNTER || me->mode == MODE_DWT_COUNTER_PIN) {
 156:timingAnalyzer.c ****              me->cycleCount+=me->startTime+DWT->CYCCNT;
 157:timingAnalyzer.c ****              float ms = me->cycleCount / (float)(BCLK__BUS_CLK__HZ/1000);
 158:timingAnalyzer.c ****              me->totalTimeDWT = ms;
 159:timingAnalyzer.c ****         } else if (me->mode == MODE_SYSTICK || me->mode == MODE_SYSTICK_PIN) {
 160:timingAnalyzer.c ****             me->totalTime+=me->startTime+systickCounter;
 161:timingAnalyzer.c ****         }
 162:timingAnalyzer.c ****       
 163:timingAnalyzer.c ****         if (me->pinControl && (me->mode == MODE_DWT_COUNTER_PIN || 
 164:timingAnalyzer.c ****                               me->mode == MODE_SYSTICK_PIN || 
 165:timingAnalyzer.c ****                               me->mode == MODE_PIN_ONLY)) 
 166:timingAnalyzer.c ****         {
 167:timingAnalyzer.c ****             me->pinControl(0);
 168:timingAnalyzer.c ****         }
 169:timingAnalyzer.c ****         me->state = STATE_STOP;   
 170:timingAnalyzer.c ****         analyzers[analyzerCount] = *me;
 171:timingAnalyzer.c ****         analyzerCount ++;
 172:timingAnalyzer.c ****         return RC_SUCCESS;
 173:timingAnalyzer.c ****     }
 174:timingAnalyzer.c ****     else
 175:timingAnalyzer.c ****     {
ARM GAS  C:\Users\abhim\AppData\Local\Temp\ccc6Qq8K.s 			page 5


 176:timingAnalyzer.c ****         UART_LOG_PutString("Invalid State\r\n");
 177:timingAnalyzer.c ****         return RC_ERROR;
 178:timingAnalyzer.c ****     }
 179:timingAnalyzer.c **** }
 180:timingAnalyzer.c **** 
 181:timingAnalyzer.c **** 
 182:timingAnalyzer.c **** /*******************************************************************************
 183:timingAnalyzer.c **** * Function Name: TimingAnalyzer_Pause
 184:timingAnalyzer.c **** ****************************************************************************//**
 185:timingAnalyzer.c **** *
 186:timingAnalyzer.c ****  * Pauses the timing analyzer.
 187:timingAnalyzer.c ****  *
 188:timingAnalyzer.c ****  * \param TimingAnalyzer_t *const me : [IN] the object of the timingAnalyzer struct.
 189:timingAnalyzer.c ****  *
 190:timingAnalyzer.c ****  * \return RC_SUCCESS if the analyser was paused from a running condition.
 191:timingAnalyzer.c ****  * \return RC_ERROR in case the current mode doesn't satisfy the above conditions.
 192:timingAnalyzer.c **** *
 193:timingAnalyzer.c **** *******************************************************************************/
 194:timingAnalyzer.c **** RC_t TimingAnalyzer_Pause(TimingAnalyzer_t* me){
 195:timingAnalyzer.c ****     if(me->state == 1){
 196:timingAnalyzer.c ****         if (me->mode == MODE_DWT_COUNTER || me->mode == MODE_DWT_COUNTER_PIN) {
 197:timingAnalyzer.c ****             DWT->CTRL &= ~DWT_CTRL_CYCCNTENA_Msk; //Negating the mask and doing an AND operation wi
 198:timingAnalyzer.c ****             me->startTime += DWT->CYCCNT;
 199:timingAnalyzer.c ****             DWT->CYCCNT = 0;
 200:timingAnalyzer.c ****         } else if (me->mode == MODE_SYSTICK || me->mode == MODE_SYSTICK_PIN) {
 201:timingAnalyzer.c ****             CySysTickStop();
 202:timingAnalyzer.c ****             me->startTime += systickCounter;
 203:timingAnalyzer.c ****             systickCounter = 0;
 204:timingAnalyzer.c ****         }
 205:timingAnalyzer.c ****       
 206:timingAnalyzer.c ****         if (me->pinControl && (me->mode == MODE_DWT_COUNTER_PIN || 
 207:timingAnalyzer.c ****                               me->mode == MODE_SYSTICK_PIN || 
 208:timingAnalyzer.c ****                               me->mode == MODE_PIN_ONLY)) {
 209:timingAnalyzer.c ****             me->pinControl(0);
 210:timingAnalyzer.c ****         }
 211:timingAnalyzer.c ****         me->state = STATE_PAUSE;   
 212:timingAnalyzer.c ****         return RC_SUCCESS;
 213:timingAnalyzer.c ****     }
 214:timingAnalyzer.c ****     else
 215:timingAnalyzer.c ****     {
 216:timingAnalyzer.c ****         UART_LOG_PutString("Invalid State\r\n");
 217:timingAnalyzer.c ****         return RC_ERROR;
 218:timingAnalyzer.c ****     }
 219:timingAnalyzer.c **** }
 220:timingAnalyzer.c **** 
 221:timingAnalyzer.c **** 
 222:timingAnalyzer.c **** /*******************************************************************************
 223:timingAnalyzer.c **** * Function Name: TimingAnalyzer_Resume
 224:timingAnalyzer.c **** ****************************************************************************//**
 225:timingAnalyzer.c **** *
 226:timingAnalyzer.c ****  * Resumes the timing analyzer.
 227:timingAnalyzer.c ****  *
 228:timingAnalyzer.c ****  * \param TimingAnalyzer_t *const me : [IN] the object of the timingAnalyzer struct.
 229:timingAnalyzer.c ****  *
 230:timingAnalyzer.c ****  * \return RC_SUCCESS if the analyser was resumed from a pause condition.
 231:timingAnalyzer.c ****  * \return RC_ERROR in case the current mode doesn't satisfy the above conditions.
 232:timingAnalyzer.c **** *
ARM GAS  C:\Users\abhim\AppData\Local\Temp\ccc6Qq8K.s 			page 6


 233:timingAnalyzer.c **** *******************************************************************************/
 234:timingAnalyzer.c **** RC_t TimingAnalyzer_Resume(TimingAnalyzer_t* me){
 235:timingAnalyzer.c ****     if(me->state == 3){
 236:timingAnalyzer.c ****         if (me->mode == MODE_DWT_COUNTER || me->mode == MODE_DWT_COUNTER_PIN) {
 237:timingAnalyzer.c ****             DWT->CTRL |= DWT_CTRL_CYCCNTENA_Msk;  //Enabling the clock by an OR operation with the 
 238:timingAnalyzer.c ****         } else if (me->mode == MODE_SYSTICK || me->mode == MODE_SYSTICK_PIN) {
 239:timingAnalyzer.c ****             CySysTickEnable();
 240:timingAnalyzer.c ****         }
 241:timingAnalyzer.c ****       
 242:timingAnalyzer.c ****         if (me->pinControl && (me->mode == MODE_DWT_COUNTER_PIN || 
 243:timingAnalyzer.c ****                               me->mode == MODE_SYSTICK_PIN || 
 244:timingAnalyzer.c ****                               me->mode == MODE_PIN_ONLY)) {
 245:timingAnalyzer.c ****             me->pinControl(1);
 246:timingAnalyzer.c ****         }
 247:timingAnalyzer.c ****         me->state = STATE_START;   
 248:timingAnalyzer.c ****         return RC_SUCCESS;
 249:timingAnalyzer.c ****     }
 250:timingAnalyzer.c ****     else
 251:timingAnalyzer.c ****     {
 252:timingAnalyzer.c ****         UART_LOG_PutString("Invalid State\r\n");
 253:timingAnalyzer.c ****         return RC_ERROR;
 254:timingAnalyzer.c ****     }
 255:timingAnalyzer.c **** }
 256:timingAnalyzer.c **** 
 257:timingAnalyzer.c **** 
 258:timingAnalyzer.c **** /*******************************************************************************
 259:timingAnalyzer.c **** * Function Name: TimingAnalyzer_PrintSingle
 260:timingAnalyzer.c **** ****************************************************************************//**
 261:timingAnalyzer.c **** *
 262:timingAnalyzer.c ****  * Resumes the timing analyzer.
 263:timingAnalyzer.c ****  *
 264:timingAnalyzer.c ****  * \param TimingAnalyzer_t *const me : [IN] the object of the timingAnalyzer struct.
 265:timingAnalyzer.c ****  *
 266:timingAnalyzer.c ****  * \return RC_SUCCESS if print was successful.
 267:timingAnalyzer.c **** *
 268:timingAnalyzer.c **** *******************************************************************************/
 269:timingAnalyzer.c **** RC_t TimingAnalyzer_PrintSingle(TimingAnalyzer_t *const me){
 270:timingAnalyzer.c ****     char buffer[128] = {0};
 271:timingAnalyzer.c ****     UART_LOG_PutString("\r\n");
 272:timingAnalyzer.c ****     UART_LOG_PutString(me->name);     //Prints the name of the timing analyzer.
 273:timingAnalyzer.c ****     
 274:timingAnalyzer.c ****     // Prints the timing information based on mode.
 275:timingAnalyzer.c ****     if (me->mode == MODE_DWT_COUNTER || me->mode == MODE_DWT_COUNTER_PIN){   
 276:timingAnalyzer.c ****      sprintf(buffer + strlen(buffer),"\r\n%s :","Elapsed CPU Cycles"); 
 277:timingAnalyzer.c ****      sprintf(buffer + strlen(buffer), "%u", me->cycleCount);
 278:timingAnalyzer.c ****      sprintf(buffer + strlen(buffer),"\r\n%s :","Elapsed time");
 279:timingAnalyzer.c ****      sprintf(buffer + strlen(buffer), "%d.%06d ms \r\n",(int)me->totalTimeDWT, (int)((me->totalTime
 280:timingAnalyzer.c ****     } 
 281:timingAnalyzer.c ****     else if (me->mode == MODE_SYSTICK || me->mode == MODE_SYSTICK_PIN) 
 282:timingAnalyzer.c ****     {
 283:timingAnalyzer.c ****         sprintf(buffer + strlen(buffer),"\r\n%s :","Elapsed time"); 
 284:timingAnalyzer.c ****         sprintf(buffer + strlen(buffer), "%d ms\r\n", me->totalTime);
 285:timingAnalyzer.c ****     }
 286:timingAnalyzer.c ****     UART_LOG_PutString(buffer);
 287:timingAnalyzer.c ****     return RC_SUCCESS;
 288:timingAnalyzer.c **** }
 289:timingAnalyzer.c **** 
ARM GAS  C:\Users\abhim\AppData\Local\Temp\ccc6Qq8K.s 			page 7


 290:timingAnalyzer.c **** 
 291:timingAnalyzer.c **** /*******************************************************************************
 292:timingAnalyzer.c **** * Function Name: TimingAnalyzer_PrintAll
 293:timingAnalyzer.c **** ****************************************************************************//**
 294:timingAnalyzer.c **** *
 295:timingAnalyzer.c ****  * Prints the timing analyzer.
 296:timingAnalyzer.c ****  *
 297:timingAnalyzer.c ****  *
 298:timingAnalyzer.c ****  * \return RC_SUCCESS if print was successful.
 299:timingAnalyzer.c **** *
 300:timingAnalyzer.c **** *******************************************************************************/
 301:timingAnalyzer.c **** RC_t TimingAnalyzer_PrintAll(void) {
 302:timingAnalyzer.c ****     
 303:timingAnalyzer.c ****     UART_LOG_PutString ("\r\n Printing all analyzer data : \r\n");
 304:timingAnalyzer.c ****     for (uint32_t i = 0; i < MAX_ANALYZERS; i++) {
 305:timingAnalyzer.c ****         if (analyzers[i].isValid) {
 306:timingAnalyzer.c ****             TimingAnalyzer_PrintSingle(&analyzers[i]);
 307:timingAnalyzer.c ****         }
 308:timingAnalyzer.c ****     }
 309:timingAnalyzer.c ****     return RC_SUCCESS;
 310:timingAnalyzer.c **** }
 311:timingAnalyzer.c **** 
 312:timingAnalyzer.c **** 
 313:timingAnalyzer.c **** /*******************************************************************************
 314:timingAnalyzer.c **** * Function Name: TimingAnalyzer_RedLED
 315:timingAnalyzer.c **** ****************************************************************************//**
 316:timingAnalyzer.c **** *
 317:timingAnalyzer.c ****  * Turns the Red LED ON/OFF.
 318:timingAnalyzer.c ****  *
 319:timingAnalyzer.c ****  *
 320:timingAnalyzer.c ****  * \return RC_SUCCESS if print was successful.
 321:timingAnalyzer.c **** *
 322:timingAnalyzer.c **** *******************************************************************************/
 323:timingAnalyzer.c **** void TimingAnalyzer_RedLED(uint8_t value){
  54              		.loc 1 323 0
  55              		.cfi_startproc
  56              		@ args = 0, pretend = 0, frame = 0
  57              		@ frame_needed = 0, uses_anonymous_args = 0
  58              	.LVL0:
  59 0000 08B5     		push	{r3, lr}
  60              		.cfi_def_cfa_offset 8
  61              		.cfi_offset 3, -8
  62              		.cfi_offset 14, -4
 324:timingAnalyzer.c ****     if(value){
  63              		.loc 1 324 0
  64 0002 10B1     		cbz	r0, .L5
 325:timingAnalyzer.c ****         Red_LED_Write(value);
  65              		.loc 1 325 0
  66 0004 FFF7FEFF 		bl	Red_LED_Write
  67              	.LVL1:
  68 0008 08BD     		pop	{r3, pc}
  69              	.LVL2:
  70              	.L5:
 326:timingAnalyzer.c ****     }
 327:timingAnalyzer.c ****     else{
 328:timingAnalyzer.c ****         Red_LED_Write(0);
  71              		.loc 1 328 0
ARM GAS  C:\Users\abhim\AppData\Local\Temp\ccc6Qq8K.s 			page 8


  72 000a 0020     		movs	r0, #0
  73              	.LVL3:
  74 000c FFF7FEFF 		bl	Red_LED_Write
  75              	.LVL4:
  76 0010 08BD     		pop	{r3, pc}
  77              		.cfi_endproc
  78              	.LFE73:
  79              		.size	TimingAnalyzer_RedLED, .-TimingAnalyzer_RedLED
  80 0012 00BF     		.section	.text.TimingAnalyzer_GreenLED,"ax",%progbits
  81              		.align	2
  82              		.global	TimingAnalyzer_GreenLED
  83              		.thumb
  84              		.thumb_func
  85              		.type	TimingAnalyzer_GreenLED, %function
  86              	TimingAnalyzer_GreenLED:
  87              	.LFB74:
 329:timingAnalyzer.c ****     }
 330:timingAnalyzer.c **** }
 331:timingAnalyzer.c **** 
 332:timingAnalyzer.c **** 
 333:timingAnalyzer.c **** /*******************************************************************************
 334:timingAnalyzer.c **** * Function Name: TimingAnalyzer_GreenLED
 335:timingAnalyzer.c **** ****************************************************************************//**
 336:timingAnalyzer.c **** *
 337:timingAnalyzer.c ****  * Turns the Green LED ON/OFF.
 338:timingAnalyzer.c ****  *
 339:timingAnalyzer.c ****  *
 340:timingAnalyzer.c **** *
 341:timingAnalyzer.c **** *******************************************************************************/
 342:timingAnalyzer.c **** void TimingAnalyzer_GreenLED(uint8_t value){
  88              		.loc 1 342 0
  89              		.cfi_startproc
  90              		@ args = 0, pretend = 0, frame = 0
  91              		@ frame_needed = 0, uses_anonymous_args = 0
  92              	.LVL5:
  93 0000 08B5     		push	{r3, lr}
  94              		.cfi_def_cfa_offset 8
  95              		.cfi_offset 3, -8
  96              		.cfi_offset 14, -4
 343:timingAnalyzer.c ****     if(value){
  97              		.loc 1 343 0
  98 0002 10B1     		cbz	r0, .L9
 344:timingAnalyzer.c ****         Green_LED_Write(value);
  99              		.loc 1 344 0
 100 0004 FFF7FEFF 		bl	Green_LED_Write
 101              	.LVL6:
 102 0008 08BD     		pop	{r3, pc}
 103              	.LVL7:
 104              	.L9:
 345:timingAnalyzer.c ****     }
 346:timingAnalyzer.c ****     else{
 347:timingAnalyzer.c ****         Green_LED_Write(0);
 105              		.loc 1 347 0
 106 000a 0020     		movs	r0, #0
 107              	.LVL8:
 108 000c FFF7FEFF 		bl	Green_LED_Write
 109              	.LVL9:
ARM GAS  C:\Users\abhim\AppData\Local\Temp\ccc6Qq8K.s 			page 9


 110 0010 08BD     		pop	{r3, pc}
 111              		.cfi_endproc
 112              	.LFE74:
 113              		.size	TimingAnalyzer_GreenLED, .-TimingAnalyzer_GreenLED
 114 0012 00BF     		.section	.text.TimingAnalyzer_YellowLED,"ax",%progbits
 115              		.align	2
 116              		.global	TimingAnalyzer_YellowLED
 117              		.thumb
 118              		.thumb_func
 119              		.type	TimingAnalyzer_YellowLED, %function
 120              	TimingAnalyzer_YellowLED:
 121              	.LFB75:
 348:timingAnalyzer.c ****     }
 349:timingAnalyzer.c **** }
 350:timingAnalyzer.c **** 
 351:timingAnalyzer.c **** 
 352:timingAnalyzer.c **** /*******************************************************************************
 353:timingAnalyzer.c **** * Function Name: TimingAnalyzer_YellowLED
 354:timingAnalyzer.c **** ****************************************************************************//**
 355:timingAnalyzer.c **** *
 356:timingAnalyzer.c ****  * Turns the Yellow LED ON/OFF.
 357:timingAnalyzer.c ****  *
 358:timingAnalyzer.c ****  *
 359:timingAnalyzer.c **** *
 360:timingAnalyzer.c **** *******************************************************************************/
 361:timingAnalyzer.c **** void TimingAnalyzer_YellowLED(uint8_t value){
 122              		.loc 1 361 0
 123              		.cfi_startproc
 124              		@ args = 0, pretend = 0, frame = 0
 125              		@ frame_needed = 0, uses_anonymous_args = 0
 126              	.LVL10:
 127 0000 08B5     		push	{r3, lr}
 128              		.cfi_def_cfa_offset 8
 129              		.cfi_offset 3, -8
 130              		.cfi_offset 14, -4
 362:timingAnalyzer.c ****     if(value){
 131              		.loc 1 362 0
 132 0002 10B1     		cbz	r0, .L13
 363:timingAnalyzer.c ****         Yellow_LED_Write(value);
 133              		.loc 1 363 0
 134 0004 FFF7FEFF 		bl	Yellow_LED_Write
 135              	.LVL11:
 136 0008 08BD     		pop	{r3, pc}
 137              	.LVL12:
 138              	.L13:
 364:timingAnalyzer.c ****     }
 365:timingAnalyzer.c ****     else{
 366:timingAnalyzer.c ****         Yellow_LED_Write(0);
 139              		.loc 1 366 0
 140 000a 0020     		movs	r0, #0
 141              	.LVL13:
 142 000c FFF7FEFF 		bl	Yellow_LED_Write
 143              	.LVL14:
 144 0010 08BD     		pop	{r3, pc}
 145              		.cfi_endproc
 146              	.LFE75:
 147              		.size	TimingAnalyzer_YellowLED, .-TimingAnalyzer_YellowLED
ARM GAS  C:\Users\abhim\AppData\Local\Temp\ccc6Qq8K.s 			page 10


 148 0012 00BF     		.section	.text.TimingAnalyzer_Init,"ax",%progbits
 149              		.align	2
 150              		.global	TimingAnalyzer_Init
 151              		.thumb
 152              		.thumb_func
 153              		.type	TimingAnalyzer_Init, %function
 154              	TimingAnalyzer_Init:
 155              	.LFB65:
  40:timingAnalyzer.c ****     //Initializing Systick counter.
 156              		.loc 1 40 0
 157              		.cfi_startproc
 158              		@ args = 0, pretend = 0, frame = 0
 159              		@ frame_needed = 0, uses_anonymous_args = 0
 160 0000 08B5     		push	{r3, lr}
 161              		.cfi_def_cfa_offset 8
 162              		.cfi_offset 3, -8
 163              		.cfi_offset 14, -4
  42:timingAnalyzer.c ****     CySysTickSetCallback(0,SysTick_Handler);
 164              		.loc 1 42 0
 165 0002 FFF7FEFF 		bl	CySysTickInit
 166              	.LVL15:
  43:timingAnalyzer.c ****     CySysTickSetReload(BCLK__BUS_CLK__HZ/1000 -1);
 167              		.loc 1 43 0
 168 0006 0A49     		ldr	r1, .L18
 169 0008 0020     		movs	r0, #0
 170 000a FFF7FEFF 		bl	CySysTickSetCallback
 171              	.LVL16:
  44:timingAnalyzer.c ****     
 172              		.loc 1 44 0
 173 000e 45F6BF50 		movw	r0, #23999
 174 0012 FFF7FEFF 		bl	CySysTickSetReload
 175              	.LVL17:
  47:timingAnalyzer.c ****     DWT->CTRL |= DWT_CTRL_CYCCNTENA_Msk;
 176              		.loc 1 47 0
 177 0016 074A     		ldr	r2, .L18+4
 178 0018 D368     		ldr	r3, [r2, #12]
 179 001a 43F08073 		orr	r3, r3, #16777216
 180 001e D360     		str	r3, [r2, #12]
  48:timingAnalyzer.c ****     DWT->CYCCNT = 0;
 181              		.loc 1 48 0
 182 0020 054B     		ldr	r3, .L18+8
 183 0022 1A68     		ldr	r2, [r3]
 184 0024 42F00102 		orr	r2, r2, #1
 185 0028 1A60     		str	r2, [r3]
  49:timingAnalyzer.c ****     return RC_SUCCESS;
 186              		.loc 1 49 0
 187 002a 0020     		movs	r0, #0
 188 002c 5860     		str	r0, [r3, #4]
  51:timingAnalyzer.c **** 
 189              		.loc 1 51 0
 190 002e 08BD     		pop	{r3, pc}
 191              	.L19:
 192              		.align	2
 193              	.L18:
 194 0030 00000000 		.word	SysTick_Handler
 195 0034 F0ED00E0 		.word	-536810000
 196 0038 001000E0 		.word	-536866816
ARM GAS  C:\Users\abhim\AppData\Local\Temp\ccc6Qq8K.s 			page 11


 197              		.cfi_endproc
 198              	.LFE65:
 199              		.size	TimingAnalyzer_Init, .-TimingAnalyzer_Init
 200              		.section	.text.TimingAnalyzer_Create,"ax",%progbits
 201              		.align	2
 202              		.global	TimingAnalyzer_Create
 203              		.thumb
 204              		.thumb_func
 205              		.type	TimingAnalyzer_Create, %function
 206              	TimingAnalyzer_Create:
 207              	.LFB66:
  68:timingAnalyzer.c ****     if(!me){
 208              		.loc 1 68 0
 209              		.cfi_startproc
 210              		@ args = 0, pretend = 0, frame = 0
 211              		@ frame_needed = 0, uses_anonymous_args = 0
 212              	.LVL18:
  69:timingAnalyzer.c ****         return RC_ERROR;      
 213              		.loc 1 69 0
 214 0000 38B3     		cbz	r0, .L27
  68:timingAnalyzer.c ****     if(!me){
 215              		.loc 1 68 0
 216 0002 70B5     		push	{r4, r5, r6, lr}
 217              		.cfi_def_cfa_offset 16
 218              		.cfi_offset 4, -16
 219              		.cfi_offset 5, -12
 220              		.cfi_offset 6, -8
 221              		.cfi_offset 14, -4
 222 0004 0446     		mov	r4, r0
 223 0006 1546     		mov	r5, r2
 224 0008 0E46     		mov	r6, r1
  72:timingAnalyzer.c ****         me->mode = mode;
 225              		.loc 1 72 0
 226 000a 1946     		mov	r1, r3
 227              	.LVL19:
 228 000c FFF7FEFF 		bl	strcpy
 229              	.LVL20:
  73:timingAnalyzer.c ****         me->pin = pin;
 230              		.loc 1 73 0
 231 0010 84F82060 		strb	r6, [r4, #32]
  74:timingAnalyzer.c ****         me->state=STATE_CONFIGURED;
 232              		.loc 1 74 0
 233 0014 84F82150 		strb	r5, [r4, #33]
  75:timingAnalyzer.c ****         me->startTime = 0;
 234              		.loc 1 75 0
 235 0018 0023     		movs	r3, #0
 236 001a 84F82230 		strb	r3, [r4, #34]
  76:timingAnalyzer.c ****         me->endTime = 0;
 237              		.loc 1 76 0
 238 001e 6362     		str	r3, [r4, #36]
  77:timingAnalyzer.c ****         me->totalTime = 0;
 239              		.loc 1 77 0
 240 0020 A362     		str	r3, [r4, #40]
  78:timingAnalyzer.c ****         me->cycleCount = 0;
 241              		.loc 1 78 0
 242 0022 2363     		str	r3, [r4, #48]
  79:timingAnalyzer.c ****    
ARM GAS  C:\Users\abhim\AppData\Local\Temp\ccc6Qq8K.s 			page 12


 243              		.loc 1 79 0
 244 0024 A363     		str	r3, [r4, #56]
  82:timingAnalyzer.c ****             case 0: me->pinControl = TimingAnalyzer_RedLED;
 245              		.loc 1 82 0
 246 0026 012D     		cmp	r5, #1
 247 0028 06D0     		beq	.L23
 248 002a 15B1     		cbz	r5, .L24
 249 002c 022D     		cmp	r5, #2
 250 002e 06D0     		beq	.L25
 251 0030 08E0     		b	.L28
 252              	.L24:
  83:timingAnalyzer.c ****             break;
 253              		.loc 1 83 0
 254 0032 094B     		ldr	r3, .L31
 255 0034 E362     		str	r3, [r4, #44]
  84:timingAnalyzer.c ****             case 1: me->pinControl = TimingAnalyzer_GreenLED;
 256              		.loc 1 84 0
 257 0036 07E0     		b	.L26
 258              	.L23:
  85:timingAnalyzer.c ****             // UART_LOG_PutString("Het");
 259              		.loc 1 85 0
 260 0038 084B     		ldr	r3, .L31+4
 261 003a E362     		str	r3, [r4, #44]
  87:timingAnalyzer.c ****             case 2: me->pinControl = TimingAnalyzer_YellowLED; 
 262              		.loc 1 87 0
 263 003c 04E0     		b	.L26
 264              	.L25:
  88:timingAnalyzer.c ****             break;
 265              		.loc 1 88 0
 266 003e 084B     		ldr	r3, .L31+8
 267 0040 E362     		str	r3, [r4, #44]
  89:timingAnalyzer.c ****             default: me->pinControl = NULL;
 268              		.loc 1 89 0
 269 0042 01E0     		b	.L26
 270              	.L28:
  90:timingAnalyzer.c ****         }
 271              		.loc 1 90 0
 272 0044 0023     		movs	r3, #0
 273 0046 E362     		str	r3, [r4, #44]
 274              	.L26:
  92:timingAnalyzer.c ****         return RC_SUCCESS;
 275              		.loc 1 92 0
 276 0048 0123     		movs	r3, #1
 277 004a 84F83C30 		strb	r3, [r4, #60]
  93:timingAnalyzer.c ****     }
 278              		.loc 1 93 0
 279 004e 0020     		movs	r0, #0
 280 0050 70BD     		pop	{r4, r5, r6, pc}
 281              	.LVL21:
 282              	.L27:
 283              		.cfi_def_cfa_offset 0
 284              		.cfi_restore 4
 285              		.cfi_restore 5
 286              		.cfi_restore 6
 287              		.cfi_restore 14
  70:timingAnalyzer.c ****     }else{
 288              		.loc 1 70 0
ARM GAS  C:\Users\abhim\AppData\Local\Temp\ccc6Qq8K.s 			page 13


 289 0052 0120     		movs	r0, #1
 290              	.LVL22:
 291 0054 7047     		bx	lr
 292              	.L32:
 293 0056 00BF     		.align	2
 294              	.L31:
 295 0058 00000000 		.word	TimingAnalyzer_RedLED
 296 005c 00000000 		.word	TimingAnalyzer_GreenLED
 297 0060 00000000 		.word	TimingAnalyzer_YellowLED
 298              		.cfi_endproc
 299              	.LFE66:
 300              		.size	TimingAnalyzer_Create, .-TimingAnalyzer_Create
 301              		.section	.text.TimingAnalyzer_Start,"ax",%progbits
 302              		.align	2
 303              		.global	TimingAnalyzer_Start
 304              		.thumb
 305              		.thumb_func
 306              		.type	TimingAnalyzer_Start, %function
 307              	TimingAnalyzer_Start:
 308              	.LFB67:
 112:timingAnalyzer.c ****     if(me->state == 0){
 309              		.loc 1 112 0
 310              		.cfi_startproc
 311              		@ args = 0, pretend = 0, frame = 0
 312              		@ frame_needed = 0, uses_anonymous_args = 0
 313              	.LVL23:
 314 0000 10B5     		push	{r4, lr}
 315              		.cfi_def_cfa_offset 8
 316              		.cfi_offset 4, -8
 317              		.cfi_offset 14, -4
 113:timingAnalyzer.c ****         if(me->mode == MODE_DWT_COUNTER || me->mode == MODE_DWT_COUNTER_PIN){
 318              		.loc 1 113 0
 319 0002 90F82230 		ldrb	r3, [r0, #34]	@ zero_extendqisi2
 320 0006 4BBB     		cbnz	r3, .L34
 321 0008 0446     		mov	r4, r0
 114:timingAnalyzer.c ****              DWT->CYCCNT =0; // Reset the counter at start
 322              		.loc 1 114 0
 323 000a 90F82030 		ldrb	r3, [r0, #32]	@ zero_extendqisi2
 324 000e 012B     		cmp	r3, #1
 325 0010 05D8     		bhi	.L35
 115:timingAnalyzer.c ****              me->startTime = DWT->CYCCNT;
 326              		.loc 1 115 0
 327 0012 154B     		ldr	r3, .L41
 328 0014 0022     		movs	r2, #0
 329 0016 5A60     		str	r2, [r3, #4]
 116:timingAnalyzer.c ****         }else if (me->mode == MODE_SYSTICK || me->mode == MODE_SYSTICK_PIN) {
 330              		.loc 1 116 0
 331 0018 5B68     		ldr	r3, [r3, #4]
 332 001a 4362     		str	r3, [r0, #36]
 333 001c 0AE0     		b	.L36
 334              	.L35:
 117:timingAnalyzer.c ****             CySysTickEnable();
 335              		.loc 1 117 0
 336 001e 023B     		subs	r3, r3, #2
 337 0020 DBB2     		uxtb	r3, r3
 338 0022 012B     		cmp	r3, #1
 339 0024 06D8     		bhi	.L36
ARM GAS  C:\Users\abhim\AppData\Local\Temp\ccc6Qq8K.s 			page 14


 118:timingAnalyzer.c ****             systickCounter = 0;  // Reset the counter at start
 340              		.loc 1 118 0
 341 0026 FFF7FEFF 		bl	CySysTickEnable
 342              	.LVL24:
 119:timingAnalyzer.c ****             me->startTime = systickCounter;
 343              		.loc 1 119 0
 344 002a 104B     		ldr	r3, .L41+4
 345 002c 0022     		movs	r2, #0
 346 002e 1A60     		str	r2, [r3]
 120:timingAnalyzer.c ****         }
 347              		.loc 1 120 0
 348 0030 1B68     		ldr	r3, [r3]
 349 0032 6362     		str	r3, [r4, #36]
 350              	.L36:
 122:timingAnalyzer.c ****         // Set pin if applicable
 351              		.loc 1 122 0
 352 0034 0123     		movs	r3, #1
 353 0036 84F82230 		strb	r3, [r4, #34]
 124:timingAnalyzer.c ****                               me->mode == MODE_SYSTICK_PIN || 
 354              		.loc 1 124 0
 355 003a E26A     		ldr	r2, [r4, #44]
 356 003c 4AB1     		cbz	r2, .L37
 124:timingAnalyzer.c ****                               me->mode == MODE_SYSTICK_PIN || 
 357              		.loc 1 124 0 is_stmt 0 discriminator 1
 358 003e 94F82030 		ldrb	r3, [r4, #32]	@ zero_extendqisi2
 359 0042 012B     		cmp	r3, #1
 360 0044 03D0     		beq	.L38
 124:timingAnalyzer.c ****                               me->mode == MODE_SYSTICK_PIN || 
 361              		.loc 1 124 0 discriminator 2
 362 0046 032B     		cmp	r3, #3
 363 0048 01D0     		beq	.L38
 125:timingAnalyzer.c ****                               me->mode == MODE_PIN_ONLY)) {
 364              		.loc 1 125 0 is_stmt 1
 365 004a 042B     		cmp	r3, #4
 366 004c 01D1     		bne	.L37
 367              	.L38:
 127:timingAnalyzer.c ****         }
 368              		.loc 1 127 0
 369 004e 0120     		movs	r0, #1
 370 0050 9047     		blx	r2
 371              	.LVL25:
 372              	.L37:
 129:timingAnalyzer.c ****         return RC_SUCCESS;
 373              		.loc 1 129 0
 374 0052 0123     		movs	r3, #1
 375 0054 84F82230 		strb	r3, [r4, #34]
 130:timingAnalyzer.c ****     }
 376              		.loc 1 130 0
 377 0058 0020     		movs	r0, #0
 378 005a 10BD     		pop	{r4, pc}
 379              	.LVL26:
 380              	.L34:
 134:timingAnalyzer.c ****         return RC_ERROR;
 381              		.loc 1 134 0
 382 005c 0448     		ldr	r0, .L41+8
 383              	.LVL27:
 384 005e FFF7FEFF 		bl	UART_LOG_PutString
ARM GAS  C:\Users\abhim\AppData\Local\Temp\ccc6Qq8K.s 			page 15


 385              	.LVL28:
 135:timingAnalyzer.c ****     }
 386              		.loc 1 135 0
 387 0062 0120     		movs	r0, #1
 138:timingAnalyzer.c **** 
 388              		.loc 1 138 0
 389 0064 10BD     		pop	{r4, pc}
 390              	.L42:
 391 0066 00BF     		.align	2
 392              	.L41:
 393 0068 001000E0 		.word	-536866816
 394 006c 00000000 		.word	.LANCHOR0
 395 0070 00000000 		.word	.LC0
 396              		.cfi_endproc
 397              	.LFE67:
 398              		.size	TimingAnalyzer_Start, .-TimingAnalyzer_Start
 399              		.global	__aeabi_ui2f
 400              		.global	__aeabi_fdiv
 401              		.section	.text.TimingAnalyzer_Stop,"ax",%progbits
 402              		.align	2
 403              		.global	TimingAnalyzer_Stop
 404              		.thumb
 405              		.thumb_func
 406              		.type	TimingAnalyzer_Stop, %function
 407              	TimingAnalyzer_Stop:
 408              	.LFB68:
 153:timingAnalyzer.c ****     if(me->state == 1 || me->state == 3){
 409              		.loc 1 153 0
 410              		.cfi_startproc
 411              		@ args = 0, pretend = 0, frame = 0
 412              		@ frame_needed = 0, uses_anonymous_args = 0
 413              	.LVL29:
 414 0000 F8B5     		push	{r3, r4, r5, r6, r7, lr}
 415              		.cfi_def_cfa_offset 24
 416              		.cfi_offset 3, -24
 417              		.cfi_offset 4, -20
 418              		.cfi_offset 5, -16
 419              		.cfi_offset 6, -12
 420              		.cfi_offset 7, -8
 421              		.cfi_offset 14, -4
 422 0002 0446     		mov	r4, r0
 154:timingAnalyzer.c ****         if (me->mode == MODE_DWT_COUNTER || me->mode == MODE_DWT_COUNTER_PIN) {
 423              		.loc 1 154 0
 424 0004 90F82230 		ldrb	r3, [r0, #34]	@ zero_extendqisi2
 425 0008 012B     		cmp	r3, #1
 426 000a 01D0     		beq	.L44
 154:timingAnalyzer.c ****         if (me->mode == MODE_DWT_COUNTER || me->mode == MODE_DWT_COUNTER_PIN) {
 427              		.loc 1 154 0 is_stmt 0 discriminator 1
 428 000c 032B     		cmp	r3, #3
 429 000e 3CD1     		bne	.L45
 430              	.L44:
 155:timingAnalyzer.c ****              me->cycleCount+=me->startTime+DWT->CYCCNT;
 431              		.loc 1 155 0 is_stmt 1
 432 0010 94F82050 		ldrb	r5, [r4, #32]	@ zero_extendqisi2
 433 0014 012D     		cmp	r5, #1
 434 0016 0DD8     		bhi	.L46
 435              	.LBB2:
ARM GAS  C:\Users\abhim\AppData\Local\Temp\ccc6Qq8K.s 			page 16


 156:timingAnalyzer.c ****              float ms = me->cycleCount / (float)(BCLK__BUS_CLK__HZ/1000);
 436              		.loc 1 156 0
 437 0018 606A     		ldr	r0, [r4, #36]
 438              	.LVL30:
 439 001a 1E4B     		ldr	r3, .L52
 440 001c 5B68     		ldr	r3, [r3, #4]
 441 001e 1844     		add	r0, r0, r3
 442 0020 A36B     		ldr	r3, [r4, #56]
 443 0022 1844     		add	r0, r0, r3
 444 0024 A063     		str	r0, [r4, #56]
 157:timingAnalyzer.c ****              me->totalTimeDWT = ms;
 445              		.loc 1 157 0
 446 0026 FFF7FEFF 		bl	__aeabi_ui2f
 447              	.LVL31:
 448 002a 1B49     		ldr	r1, .L52+4
 449 002c FFF7FEFF 		bl	__aeabi_fdiv
 450              	.LVL32:
 158:timingAnalyzer.c ****         } else if (me->mode == MODE_SYSTICK || me->mode == MODE_SYSTICK_PIN) {
 451              		.loc 1 158 0
 452 0030 6063     		str	r0, [r4, #52]	@ float
 453              	.LBE2:
 454 0032 0AE0     		b	.L47
 455              	.LVL33:
 456              	.L46:
 159:timingAnalyzer.c ****             me->totalTime+=me->startTime+systickCounter;
 457              		.loc 1 159 0
 458 0034 AB1E     		subs	r3, r5, #2
 459 0036 DBB2     		uxtb	r3, r3
 460 0038 012B     		cmp	r3, #1
 461 003a 06D8     		bhi	.L47
 160:timingAnalyzer.c ****         }
 462              		.loc 1 160 0
 463 003c 626A     		ldr	r2, [r4, #36]
 464 003e 174B     		ldr	r3, .L52+8
 465 0040 1B68     		ldr	r3, [r3]
 466 0042 1344     		add	r3, r3, r2
 467 0044 226B     		ldr	r2, [r4, #48]
 468 0046 1344     		add	r3, r3, r2
 469 0048 2363     		str	r3, [r4, #48]
 470              	.LVL34:
 471              	.L47:
 163:timingAnalyzer.c ****                               me->mode == MODE_SYSTICK_PIN || 
 472              		.loc 1 163 0
 473 004a E36A     		ldr	r3, [r4, #44]
 474 004c 3BB1     		cbz	r3, .L48
 163:timingAnalyzer.c ****                               me->mode == MODE_SYSTICK_PIN || 
 475              		.loc 1 163 0 is_stmt 0 discriminator 1
 476 004e 012D     		cmp	r5, #1
 477 0050 03D0     		beq	.L49
 163:timingAnalyzer.c ****                               me->mode == MODE_SYSTICK_PIN || 
 478              		.loc 1 163 0 discriminator 2
 479 0052 032D     		cmp	r5, #3
 480 0054 01D0     		beq	.L49
 164:timingAnalyzer.c ****                               me->mode == MODE_PIN_ONLY)) 
 481              		.loc 1 164 0 is_stmt 1
 482 0056 042D     		cmp	r5, #4
 483 0058 01D1     		bne	.L48
ARM GAS  C:\Users\abhim\AppData\Local\Temp\ccc6Qq8K.s 			page 17


 484              	.L49:
 167:timingAnalyzer.c ****         }
 485              		.loc 1 167 0
 486 005a 0020     		movs	r0, #0
 487 005c 9847     		blx	r3
 488              	.LVL35:
 489              	.L48:
 169:timingAnalyzer.c ****         analyzers[analyzerCount] = *me;
 490              		.loc 1 169 0
 491 005e 0223     		movs	r3, #2
 492 0060 84F82230 		strb	r3, [r4, #34]
 170:timingAnalyzer.c ****         analyzerCount ++;
 493              		.loc 1 170 0
 494 0064 0D4F     		ldr	r7, .L52+8
 495 0066 7E68     		ldr	r6, [r7, #4]
 496 0068 07EB8615 		add	r5, r7, r6, lsl #6
 497 006c 0835     		adds	r5, r5, #8
 498 006e 0FCC     		ldmia	r4!, {r0, r1, r2, r3}
 499              	.LVL36:
 500 0070 0FC5     		stmia	r5!, {r0, r1, r2, r3}
 501 0072 0FCC     		ldmia	r4!, {r0, r1, r2, r3}
 502              	.LVL37:
 503 0074 0FC5     		stmia	r5!, {r0, r1, r2, r3}
 504 0076 0FCC     		ldmia	r4!, {r0, r1, r2, r3}
 505              	.LVL38:
 506 0078 0FC5     		stmia	r5!, {r0, r1, r2, r3}
 507 007a 94E80F00 		ldmia	r4, {r0, r1, r2, r3}
 508 007e 85E80F00 		stmia	r5, {r0, r1, r2, r3}
 171:timingAnalyzer.c ****         return RC_SUCCESS;
 509              		.loc 1 171 0
 510 0082 0136     		adds	r6, r6, #1
 511 0084 7E60     		str	r6, [r7, #4]
 172:timingAnalyzer.c ****     }
 512              		.loc 1 172 0
 513 0086 0020     		movs	r0, #0
 514 0088 F8BD     		pop	{r3, r4, r5, r6, r7, pc}
 515              	.LVL39:
 516              	.L45:
 176:timingAnalyzer.c ****         return RC_ERROR;
 517              		.loc 1 176 0
 518 008a 0548     		ldr	r0, .L52+12
 519              	.LVL40:
 520 008c FFF7FEFF 		bl	UART_LOG_PutString
 521              	.LVL41:
 177:timingAnalyzer.c ****     }
 522              		.loc 1 177 0
 523 0090 0120     		movs	r0, #1
 179:timingAnalyzer.c **** 
 524              		.loc 1 179 0
 525 0092 F8BD     		pop	{r3, r4, r5, r6, r7, pc}
 526              	.LVL42:
 527              	.L53:
 528              		.align	2
 529              	.L52:
 530 0094 001000E0 		.word	-536866816
 531 0098 0080BB46 		.word	1186693120
 532 009c 00000000 		.word	.LANCHOR0
ARM GAS  C:\Users\abhim\AppData\Local\Temp\ccc6Qq8K.s 			page 18


 533 00a0 00000000 		.word	.LC0
 534              		.cfi_endproc
 535              	.LFE68:
 536              		.size	TimingAnalyzer_Stop, .-TimingAnalyzer_Stop
 537              		.section	.text.TimingAnalyzer_Pause,"ax",%progbits
 538              		.align	2
 539              		.global	TimingAnalyzer_Pause
 540              		.thumb
 541              		.thumb_func
 542              		.type	TimingAnalyzer_Pause, %function
 543              	TimingAnalyzer_Pause:
 544              	.LFB69:
 194:timingAnalyzer.c ****     if(me->state == 1){
 545              		.loc 1 194 0
 546              		.cfi_startproc
 547              		@ args = 0, pretend = 0, frame = 0
 548              		@ frame_needed = 0, uses_anonymous_args = 0
 549              	.LVL43:
 550 0000 10B5     		push	{r4, lr}
 551              		.cfi_def_cfa_offset 8
 552              		.cfi_offset 4, -8
 553              		.cfi_offset 14, -4
 195:timingAnalyzer.c ****         if (me->mode == MODE_DWT_COUNTER || me->mode == MODE_DWT_COUNTER_PIN) {
 554              		.loc 1 195 0
 555 0002 90F82230 		ldrb	r3, [r0, #34]	@ zero_extendqisi2
 556 0006 012B     		cmp	r3, #1
 557 0008 2ED1     		bne	.L55
 558 000a 0446     		mov	r4, r0
 196:timingAnalyzer.c ****             DWT->CTRL &= ~DWT_CTRL_CYCCNTENA_Msk; //Negating the mask and doing an AND operation wi
 559              		.loc 1 196 0
 560 000c 90F82030 		ldrb	r3, [r0, #32]	@ zero_extendqisi2
 561 0010 012B     		cmp	r3, #1
 562 0012 0BD8     		bhi	.L56
 197:timingAnalyzer.c ****             me->startTime += DWT->CYCCNT;
 563              		.loc 1 197 0
 564 0014 174B     		ldr	r3, .L62
 565 0016 1A68     		ldr	r2, [r3]
 566 0018 22F00102 		bic	r2, r2, #1
 567 001c 1A60     		str	r2, [r3]
 198:timingAnalyzer.c ****             DWT->CYCCNT = 0;
 568              		.loc 1 198 0
 569 001e 5A68     		ldr	r2, [r3, #4]
 570 0020 416A     		ldr	r1, [r0, #36]
 571 0022 0A44     		add	r2, r2, r1
 572 0024 4262     		str	r2, [r0, #36]
 199:timingAnalyzer.c ****         } else if (me->mode == MODE_SYSTICK || me->mode == MODE_SYSTICK_PIN) {
 573              		.loc 1 199 0
 574 0026 0022     		movs	r2, #0
 575 0028 5A60     		str	r2, [r3, #4]
 576 002a 0CE0     		b	.L57
 577              	.L56:
 200:timingAnalyzer.c ****             CySysTickStop();
 578              		.loc 1 200 0
 579 002c 023B     		subs	r3, r3, #2
 580 002e DBB2     		uxtb	r3, r3
 581 0030 012B     		cmp	r3, #1
 582 0032 08D8     		bhi	.L57
ARM GAS  C:\Users\abhim\AppData\Local\Temp\ccc6Qq8K.s 			page 19


 201:timingAnalyzer.c ****             me->startTime += systickCounter;
 583              		.loc 1 201 0
 584 0034 FFF7FEFF 		bl	CySysTickStop
 585              	.LVL44:
 202:timingAnalyzer.c ****             systickCounter = 0;
 586              		.loc 1 202 0
 587 0038 0F4A     		ldr	r2, .L62+4
 588 003a 1368     		ldr	r3, [r2]
 589 003c 616A     		ldr	r1, [r4, #36]
 590 003e 0B44     		add	r3, r3, r1
 591 0040 6362     		str	r3, [r4, #36]
 203:timingAnalyzer.c ****         }
 592              		.loc 1 203 0
 593 0042 0023     		movs	r3, #0
 594 0044 1360     		str	r3, [r2]
 595              	.L57:
 206:timingAnalyzer.c ****                               me->mode == MODE_SYSTICK_PIN || 
 596              		.loc 1 206 0
 597 0046 E26A     		ldr	r2, [r4, #44]
 598 0048 4AB1     		cbz	r2, .L58
 206:timingAnalyzer.c ****                               me->mode == MODE_SYSTICK_PIN || 
 599              		.loc 1 206 0 is_stmt 0 discriminator 1
 600 004a 94F82030 		ldrb	r3, [r4, #32]	@ zero_extendqisi2
 601 004e 012B     		cmp	r3, #1
 602 0050 03D0     		beq	.L59
 206:timingAnalyzer.c ****                               me->mode == MODE_SYSTICK_PIN || 
 603              		.loc 1 206 0 discriminator 2
 604 0052 032B     		cmp	r3, #3
 605 0054 01D0     		beq	.L59
 207:timingAnalyzer.c ****                               me->mode == MODE_PIN_ONLY)) {
 606              		.loc 1 207 0 is_stmt 1
 607 0056 042B     		cmp	r3, #4
 608 0058 01D1     		bne	.L58
 609              	.L59:
 209:timingAnalyzer.c ****         }
 610              		.loc 1 209 0
 611 005a 0020     		movs	r0, #0
 612 005c 9047     		blx	r2
 613              	.LVL45:
 614              	.L58:
 211:timingAnalyzer.c ****         return RC_SUCCESS;
 615              		.loc 1 211 0
 616 005e 0323     		movs	r3, #3
 617 0060 84F82230 		strb	r3, [r4, #34]
 212:timingAnalyzer.c ****     }
 618              		.loc 1 212 0
 619 0064 0020     		movs	r0, #0
 620 0066 10BD     		pop	{r4, pc}
 621              	.LVL46:
 622              	.L55:
 216:timingAnalyzer.c ****         return RC_ERROR;
 623              		.loc 1 216 0
 624 0068 0448     		ldr	r0, .L62+8
 625              	.LVL47:
 626 006a FFF7FEFF 		bl	UART_LOG_PutString
 627              	.LVL48:
 217:timingAnalyzer.c ****     }
ARM GAS  C:\Users\abhim\AppData\Local\Temp\ccc6Qq8K.s 			page 20


 628              		.loc 1 217 0
 629 006e 0120     		movs	r0, #1
 219:timingAnalyzer.c **** 
 630              		.loc 1 219 0
 631 0070 10BD     		pop	{r4, pc}
 632              	.L63:
 633 0072 00BF     		.align	2
 634              	.L62:
 635 0074 001000E0 		.word	-536866816
 636 0078 00000000 		.word	.LANCHOR0
 637 007c 00000000 		.word	.LC0
 638              		.cfi_endproc
 639              	.LFE69:
 640              		.size	TimingAnalyzer_Pause, .-TimingAnalyzer_Pause
 641              		.section	.text.TimingAnalyzer_Resume,"ax",%progbits
 642              		.align	2
 643              		.global	TimingAnalyzer_Resume
 644              		.thumb
 645              		.thumb_func
 646              		.type	TimingAnalyzer_Resume, %function
 647              	TimingAnalyzer_Resume:
 648              	.LFB70:
 234:timingAnalyzer.c ****     if(me->state == 3){
 649              		.loc 1 234 0
 650              		.cfi_startproc
 651              		@ args = 0, pretend = 0, frame = 0
 652              		@ frame_needed = 0, uses_anonymous_args = 0
 653              	.LVL49:
 654 0000 10B5     		push	{r4, lr}
 655              		.cfi_def_cfa_offset 8
 656              		.cfi_offset 4, -8
 657              		.cfi_offset 14, -4
 235:timingAnalyzer.c ****         if (me->mode == MODE_DWT_COUNTER || me->mode == MODE_DWT_COUNTER_PIN) {
 658              		.loc 1 235 0
 659 0002 90F82230 		ldrb	r3, [r0, #34]	@ zero_extendqisi2
 660 0006 032B     		cmp	r3, #3
 661 0008 21D1     		bne	.L65
 662 000a 0446     		mov	r4, r0
 236:timingAnalyzer.c ****             DWT->CTRL |= DWT_CTRL_CYCCNTENA_Msk;  //Enabling the clock by an OR operation with the 
 663              		.loc 1 236 0
 664 000c 90F82030 		ldrb	r3, [r0, #32]	@ zero_extendqisi2
 665 0010 012B     		cmp	r3, #1
 666 0012 05D8     		bhi	.L66
 237:timingAnalyzer.c ****         } else if (me->mode == MODE_SYSTICK || me->mode == MODE_SYSTICK_PIN) {
 667              		.loc 1 237 0
 668 0014 104A     		ldr	r2, .L72
 669 0016 1368     		ldr	r3, [r2]
 670 0018 43F00103 		orr	r3, r3, #1
 671 001c 1360     		str	r3, [r2]
 672 001e 05E0     		b	.L67
 673              	.L66:
 238:timingAnalyzer.c ****             CySysTickEnable();
 674              		.loc 1 238 0
 675 0020 023B     		subs	r3, r3, #2
 676 0022 DBB2     		uxtb	r3, r3
 677 0024 012B     		cmp	r3, #1
 678 0026 01D8     		bhi	.L67
ARM GAS  C:\Users\abhim\AppData\Local\Temp\ccc6Qq8K.s 			page 21


 239:timingAnalyzer.c ****         }
 679              		.loc 1 239 0
 680 0028 FFF7FEFF 		bl	CySysTickEnable
 681              	.LVL50:
 682              	.L67:
 242:timingAnalyzer.c ****                               me->mode == MODE_SYSTICK_PIN || 
 683              		.loc 1 242 0
 684 002c E26A     		ldr	r2, [r4, #44]
 685 002e 4AB1     		cbz	r2, .L68
 242:timingAnalyzer.c ****                               me->mode == MODE_SYSTICK_PIN || 
 686              		.loc 1 242 0 is_stmt 0 discriminator 1
 687 0030 94F82030 		ldrb	r3, [r4, #32]	@ zero_extendqisi2
 688 0034 012B     		cmp	r3, #1
 689 0036 03D0     		beq	.L69
 242:timingAnalyzer.c ****                               me->mode == MODE_SYSTICK_PIN || 
 690              		.loc 1 242 0 discriminator 2
 691 0038 032B     		cmp	r3, #3
 692 003a 01D0     		beq	.L69
 243:timingAnalyzer.c ****                               me->mode == MODE_PIN_ONLY)) {
 693              		.loc 1 243 0 is_stmt 1
 694 003c 042B     		cmp	r3, #4
 695 003e 01D1     		bne	.L68
 696              	.L69:
 245:timingAnalyzer.c ****         }
 697              		.loc 1 245 0
 698 0040 0120     		movs	r0, #1
 699 0042 9047     		blx	r2
 700              	.LVL51:
 701              	.L68:
 247:timingAnalyzer.c ****         return RC_SUCCESS;
 702              		.loc 1 247 0
 703 0044 0123     		movs	r3, #1
 704 0046 84F82230 		strb	r3, [r4, #34]
 248:timingAnalyzer.c ****     }
 705              		.loc 1 248 0
 706 004a 0020     		movs	r0, #0
 707 004c 10BD     		pop	{r4, pc}
 708              	.LVL52:
 709              	.L65:
 252:timingAnalyzer.c ****         return RC_ERROR;
 710              		.loc 1 252 0
 711 004e 0348     		ldr	r0, .L72+4
 712              	.LVL53:
 713 0050 FFF7FEFF 		bl	UART_LOG_PutString
 714              	.LVL54:
 253:timingAnalyzer.c ****     }
 715              		.loc 1 253 0
 716 0054 0120     		movs	r0, #1
 255:timingAnalyzer.c **** 
 717              		.loc 1 255 0
 718 0056 10BD     		pop	{r4, pc}
 719              	.L73:
 720              		.align	2
 721              	.L72:
 722 0058 001000E0 		.word	-536866816
 723 005c 00000000 		.word	.LC0
 724              		.cfi_endproc
ARM GAS  C:\Users\abhim\AppData\Local\Temp\ccc6Qq8K.s 			page 22


 725              	.LFE70:
 726              		.size	TimingAnalyzer_Resume, .-TimingAnalyzer_Resume
 727              		.global	__aeabi_f2iz
 728              		.global	__aeabi_i2f
 729              		.global	__aeabi_fsub
 730              		.global	__aeabi_fmul
 731              		.section	.text.TimingAnalyzer_PrintSingle,"ax",%progbits
 732              		.align	2
 733              		.global	TimingAnalyzer_PrintSingle
 734              		.thumb
 735              		.thumb_func
 736              		.type	TimingAnalyzer_PrintSingle, %function
 737              	TimingAnalyzer_PrintSingle:
 738              	.LFB71:
 269:timingAnalyzer.c ****     char buffer[128] = {0};
 739              		.loc 1 269 0
 740              		.cfi_startproc
 741              		@ args = 0, pretend = 0, frame = 128
 742              		@ frame_needed = 0, uses_anonymous_args = 0
 743              	.LVL55:
 744 0000 70B5     		push	{r4, r5, r6, lr}
 745              		.cfi_def_cfa_offset 16
 746              		.cfi_offset 4, -16
 747              		.cfi_offset 5, -12
 748              		.cfi_offset 6, -8
 749              		.cfi_offset 14, -4
 750 0002 A0B0     		sub	sp, sp, #128
 751              		.cfi_def_cfa_offset 144
 752 0004 0446     		mov	r4, r0
 270:timingAnalyzer.c ****     UART_LOG_PutString("\r\n");
 753              		.loc 1 270 0
 754 0006 8022     		movs	r2, #128
 755 0008 0021     		movs	r1, #0
 756 000a 6846     		mov	r0, sp
 757              	.LVL56:
 758 000c FFF7FEFF 		bl	memset
 759              	.LVL57:
 271:timingAnalyzer.c ****     UART_LOG_PutString(me->name);     //Prints the name of the timing analyzer.
 760              		.loc 1 271 0
 761 0010 2C48     		ldr	r0, .L78
 762 0012 FFF7FEFF 		bl	UART_LOG_PutString
 763              	.LVL58:
 272:timingAnalyzer.c ****     
 764              		.loc 1 272 0
 765 0016 2046     		mov	r0, r4
 766 0018 FFF7FEFF 		bl	UART_LOG_PutString
 767              	.LVL59:
 275:timingAnalyzer.c ****      sprintf(buffer + strlen(buffer),"\r\n%s :","Elapsed CPU Cycles"); 
 768              		.loc 1 275 0
 769 001c 94F82030 		ldrb	r3, [r4, #32]	@ zero_extendqisi2
 770 0020 012B     		cmp	r3, #1
 771 0022 34D8     		bhi	.L75
 276:timingAnalyzer.c ****      sprintf(buffer + strlen(buffer), "%u", me->cycleCount);
 772              		.loc 1 276 0
 773 0024 6846     		mov	r0, sp
 774 0026 FFF7FEFF 		bl	strlen
 775              	.LVL60:
ARM GAS  C:\Users\abhim\AppData\Local\Temp\ccc6Qq8K.s 			page 23


 776 002a 274D     		ldr	r5, .L78+4
 777 002c 274A     		ldr	r2, .L78+8
 778 002e 2946     		mov	r1, r5
 779 0030 6844     		add	r0, r0, sp
 780 0032 FFF7FEFF 		bl	sprintf
 781              	.LVL61:
 277:timingAnalyzer.c ****      sprintf(buffer + strlen(buffer),"\r\n%s :","Elapsed time");
 782              		.loc 1 277 0
 783 0036 6846     		mov	r0, sp
 784 0038 FFF7FEFF 		bl	strlen
 785              	.LVL62:
 786 003c A26B     		ldr	r2, [r4, #56]
 787 003e 2449     		ldr	r1, .L78+12
 788 0040 6844     		add	r0, r0, sp
 789 0042 FFF7FEFF 		bl	sprintf
 790              	.LVL63:
 278:timingAnalyzer.c ****      sprintf(buffer + strlen(buffer), "%d.%06d ms \r\n",(int)me->totalTimeDWT, (int)((me->totalTime
 791              		.loc 1 278 0
 792 0046 6846     		mov	r0, sp
 793 0048 FFF7FEFF 		bl	strlen
 794              	.LVL64:
 795 004c 214A     		ldr	r2, .L78+16
 796 004e 2946     		mov	r1, r5
 797 0050 6844     		add	r0, r0, sp
 798 0052 FFF7FEFF 		bl	sprintf
 799              	.LVL65:
 279:timingAnalyzer.c ****     } 
 800              		.loc 1 279 0
 801 0056 6846     		mov	r0, sp
 802 0058 FFF7FEFF 		bl	strlen
 803              	.LVL66:
 804 005c 0546     		mov	r5, r0
 805 005e 646B     		ldr	r4, [r4, #52]	@ float
 806              	.LVL67:
 807 0060 2046     		mov	r0, r4
 808 0062 FFF7FEFF 		bl	__aeabi_f2iz
 809              	.LVL68:
 810 0066 0646     		mov	r6, r0
 811 0068 FFF7FEFF 		bl	__aeabi_i2f
 812              	.LVL69:
 813 006c 0146     		mov	r1, r0
 814 006e 2046     		mov	r0, r4
 815 0070 FFF7FEFF 		bl	__aeabi_fsub
 816              	.LVL70:
 817 0074 1849     		ldr	r1, .L78+20
 818 0076 FFF7FEFF 		bl	__aeabi_fmul
 819              	.LVL71:
 820 007a FFF7FEFF 		bl	__aeabi_f2iz
 821              	.LVL72:
 822 007e 0346     		mov	r3, r0
 823 0080 3246     		mov	r2, r6
 824 0082 1649     		ldr	r1, .L78+24
 825 0084 0DEB0500 		add	r0, sp, r5
 826 0088 FFF7FEFF 		bl	sprintf
 827              	.LVL73:
 828 008c 13E0     		b	.L76
 829              	.LVL74:
ARM GAS  C:\Users\abhim\AppData\Local\Temp\ccc6Qq8K.s 			page 24


 830              	.L75:
 281:timingAnalyzer.c ****     {
 831              		.loc 1 281 0
 832 008e 023B     		subs	r3, r3, #2
 833 0090 DBB2     		uxtb	r3, r3
 834 0092 012B     		cmp	r3, #1
 835 0094 0FD8     		bhi	.L76
 283:timingAnalyzer.c ****         sprintf(buffer + strlen(buffer), "%d ms\r\n", me->totalTime);
 836              		.loc 1 283 0
 837 0096 6846     		mov	r0, sp
 838 0098 FFF7FEFF 		bl	strlen
 839              	.LVL75:
 840 009c 0D4A     		ldr	r2, .L78+16
 841 009e 0A49     		ldr	r1, .L78+4
 842 00a0 6844     		add	r0, r0, sp
 843 00a2 FFF7FEFF 		bl	sprintf
 844              	.LVL76:
 284:timingAnalyzer.c ****     }
 845              		.loc 1 284 0
 846 00a6 6846     		mov	r0, sp
 847 00a8 FFF7FEFF 		bl	strlen
 848              	.LVL77:
 849 00ac 226B     		ldr	r2, [r4, #48]
 850 00ae 0C49     		ldr	r1, .L78+28
 851 00b0 6844     		add	r0, r0, sp
 852 00b2 FFF7FEFF 		bl	sprintf
 853              	.LVL78:
 854              	.L76:
 286:timingAnalyzer.c ****     return RC_SUCCESS;
 855              		.loc 1 286 0
 856 00b6 6846     		mov	r0, sp
 857 00b8 FFF7FEFF 		bl	UART_LOG_PutString
 858              	.LVL79:
 288:timingAnalyzer.c **** 
 859              		.loc 1 288 0
 860 00bc 0020     		movs	r0, #0
 861 00be 20B0     		add	sp, sp, #128
 862              		.cfi_def_cfa_offset 16
 863              		@ sp needed
 864 00c0 70BD     		pop	{r4, r5, r6, pc}
 865              	.L79:
 866 00c2 00BF     		.align	2
 867              	.L78:
 868 00c4 10000000 		.word	.LC1
 869 00c8 28000000 		.word	.LC3
 870 00cc 14000000 		.word	.LC2
 871 00d0 30000000 		.word	.LC4
 872 00d4 34000000 		.word	.LC5
 873 00d8 00247449 		.word	1232348160
 874 00dc 44000000 		.word	.LC6
 875 00e0 54000000 		.word	.LC7
 876              		.cfi_endproc
 877              	.LFE71:
 878              		.size	TimingAnalyzer_PrintSingle, .-TimingAnalyzer_PrintSingle
 879              		.section	.text.TimingAnalyzer_PrintAll,"ax",%progbits
 880              		.align	2
 881              		.global	TimingAnalyzer_PrintAll
ARM GAS  C:\Users\abhim\AppData\Local\Temp\ccc6Qq8K.s 			page 25


 882              		.thumb
 883              		.thumb_func
 884              		.type	TimingAnalyzer_PrintAll, %function
 885              	TimingAnalyzer_PrintAll:
 886              	.LFB72:
 301:timingAnalyzer.c ****     
 887              		.loc 1 301 0
 888              		.cfi_startproc
 889              		@ args = 0, pretend = 0, frame = 0
 890              		@ frame_needed = 0, uses_anonymous_args = 0
 891 0000 10B5     		push	{r4, lr}
 892              		.cfi_def_cfa_offset 8
 893              		.cfi_offset 4, -8
 894              		.cfi_offset 14, -4
 303:timingAnalyzer.c ****     for (uint32_t i = 0; i < MAX_ANALYZERS; i++) {
 895              		.loc 1 303 0
 896 0002 0A48     		ldr	r0, .L85
 897 0004 FFF7FEFF 		bl	UART_LOG_PutString
 898              	.LVL80:
 899              	.LBB3:
 304:timingAnalyzer.c ****         if (analyzers[i].isValid) {
 900              		.loc 1 304 0
 901 0008 0024     		movs	r4, #0
 902 000a 0BE0     		b	.L81
 903              	.LVL81:
 904              	.L83:
 305:timingAnalyzer.c ****             TimingAnalyzer_PrintSingle(&analyzers[i]);
 905              		.loc 1 305 0
 906 000c 084B     		ldr	r3, .L85+4
 907 000e 03EB8413 		add	r3, r3, r4, lsl #6
 908 0012 93F84430 		ldrb	r3, [r3, #68]	@ zero_extendqisi2
 909 0016 23B1     		cbz	r3, .L82
 306:timingAnalyzer.c ****         }
 910              		.loc 1 306 0
 911 0018 0648     		ldr	r0, .L85+8
 912 001a 00EB8410 		add	r0, r0, r4, lsl #6
 913 001e FFF7FEFF 		bl	TimingAnalyzer_PrintSingle
 914              	.LVL82:
 915              	.L82:
 304:timingAnalyzer.c ****         if (analyzers[i].isValid) {
 916              		.loc 1 304 0 discriminator 2
 917 0022 0134     		adds	r4, r4, #1
 918              	.LVL83:
 919              	.L81:
 304:timingAnalyzer.c ****         if (analyzers[i].isValid) {
 920              		.loc 1 304 0 is_stmt 0 discriminator 1
 921 0024 072C     		cmp	r4, #7
 922 0026 F1D9     		bls	.L83
 923              	.LBE3:
 310:timingAnalyzer.c **** 
 924              		.loc 1 310 0 is_stmt 1
 925 0028 0020     		movs	r0, #0
 926 002a 10BD     		pop	{r4, pc}
 927              	.LVL84:
 928              	.L86:
 929              		.align	2
 930              	.L85:
ARM GAS  C:\Users\abhim\AppData\Local\Temp\ccc6Qq8K.s 			page 26


 931 002c 5C000000 		.word	.LC8
 932 0030 00000000 		.word	.LANCHOR0
 933 0034 08000000 		.word	.LANCHOR0+8
 934              		.cfi_endproc
 935              	.LFE72:
 936              		.size	TimingAnalyzer_PrintAll, .-TimingAnalyzer_PrintAll
 937              		.section	.rodata.str1.4,"aMS",%progbits,1
 938              		.align	2
 939              	.LC0:
 940 0000 496E7661 		.ascii	"Invalid State\015\012\000"
 940      6C696420 
 940      53746174 
 940      650D0A00 
 941              	.LC1:
 942 0010 0D0A00   		.ascii	"\015\012\000"
 943 0013 00       		.space	1
 944              	.LC2:
 945 0014 456C6170 		.ascii	"Elapsed CPU Cycles\000"
 945      73656420 
 945      43505520 
 945      4379636C 
 945      657300
 946 0027 00       		.space	1
 947              	.LC3:
 948 0028 0D0A2573 		.ascii	"\015\012%s :\000"
 948      203A00
 949 002f 00       		.space	1
 950              	.LC4:
 951 0030 257500   		.ascii	"%u\000"
 952 0033 00       		.space	1
 953              	.LC5:
 954 0034 456C6170 		.ascii	"Elapsed time\000"
 954      73656420 
 954      74696D65 
 954      00
 955 0041 000000   		.space	3
 956              	.LC6:
 957 0044 25642E25 		.ascii	"%d.%06d ms \015\012\000"
 957      30366420 
 957      6D73200D 
 957      0A00
 958 0052 0000     		.space	2
 959              	.LC7:
 960 0054 2564206D 		.ascii	"%d ms\015\012\000"
 960      730D0A00 
 961              	.LC8:
 962 005c 0D0A2050 		.ascii	"\015\012 Printing all analyzer data : \015\012\000"
 962      72696E74 
 962      696E6720 
 962      616C6C20 
 962      616E616C 
 963              		.bss
 964              		.align	2
 965              		.set	.LANCHOR0,. + 0
 966              		.type	systickCounter, %object
 967              		.size	systickCounter, 4
 968              	systickCounter:
ARM GAS  C:\Users\abhim\AppData\Local\Temp\ccc6Qq8K.s 			page 27


 969 0000 00000000 		.space	4
 970              		.type	analyzerCount, %object
 971              		.size	analyzerCount, 4
 972              	analyzerCount:
 973 0004 00000000 		.space	4
 974              		.type	analyzers, %object
 975              		.size	analyzers, 512
 976              	analyzers:
 977 0008 00000000 		.space	512
 977      00000000 
 977      00000000 
 977      00000000 
 977      00000000 
 978              		.text
 979              	.Letext0:
 980              		.file 2 "global.h"
 981              		.file 3 "c:\\program files (x86)\\cypress\\psoc creator\\4.4\\psoc creator\\import\\gnu\\arm\\5.4.
 982              		.file 4 "c:\\program files (x86)\\cypress\\psoc creator\\4.4\\psoc creator\\import\\gnu\\arm\\5.4.
 983              		.file 5 "Generated_Source\\PSoC5/core_cm3.h"
 984              		.file 6 "timingAnalyzer.h"
 985              		.file 7 "Generated_Source\\PSoC5/Red_LED.h"
 986              		.file 8 "Generated_Source\\PSoC5/Green_LED.h"
 987              		.file 9 "Generated_Source\\PSoC5/Yellow_LED.h"
 988              		.file 10 "Generated_Source\\PSoC5/CyLib.h"
 989              		.file 11 "c:\\program files (x86)\\cypress\\psoc creator\\4.4\\psoc creator\\import\\gnu\\arm\\5.4
 990              		.file 12 "Generated_Source\\PSoC5/UART_LOG.h"
 991              		.file 13 "c:\\program files (x86)\\cypress\\psoc creator\\4.4\\psoc creator\\import\\gnu\\arm\\5.4